; Function Attrs: mustprogress uwtable
define void @_ZN32pxrInternal_v0_24__pxrReserved__16ArchLibraryErrorB5cxx11Ev(ptr dead_on_unwind noalias writable sret(%"class.std::__cxx11::basic_string") align 8 %0) local_unnamed_addr #2 personality ptr @__gxx_personality_v0 {
  %2 = alloca %"class.std::allocator", align 1
  %3 = tail call ptr @dlerror() #7
  %.not.not = icmp eq ptr %3, null
  br i1 %.not.not, label %_ZNSt7__cxx1112basic_stringIcSt11char_traitsIcESaIcEEC2IS3_EEPKcRKS3_.exit.thread, label %4

4:                                                ; preds = %1
  call void @_ZNSaIcEC1Ev(ptr noundef nonnull align 1 dereferenceable(1) %2) #7
  %5 = invoke noundef ptr @_ZNSt7__cxx1112basic_stringIcSt11char_traitsIcESaIcEE13_M_local_dataEv(ptr noundef nonnull align 8 dereferenceable(32) %0)
          to label %.noexc unwind label %11

.noexc:                                           ; preds = %4
  invoke void @_ZNSt7__cxx1112basic_stringIcSt11char_traitsIcESaIcEE12_Alloc_hiderC1EPcRKS3_(ptr noundef nonnull align 8 dereferenceable(8) %0, ptr noundef %5, ptr noundef nonnull align 1 dereferenceable(1) %2)
          to label %.noexc6 unwind label %11

6:                                                ; preds = %.noexc6
  %7 = landingpad { ptr, i32 }
          cleanup
  call void @_ZNSaIcED2Ev(ptr noundef nonnull align 1 dereferenceable(1) %0) #7
  br label %.body

.noexc6:                                          ; preds = %.noexc
  %8 = call noundef i64 @strlen(ptr noundef nonnull dereferenceable(1) %3) #7
  %9 = getelementptr inbounds i8, ptr %3, i64 %8
  invoke void @_ZNSt7__cxx1112basic_stringIcSt11char_traitsIcESaIcEE12_M_constructIPKcEEvT_S8_St20forward_iterator_tag(ptr noundef nonnull align 8 dereferenceable(32) %0, ptr noundef nonnull %3, ptr noundef nonnull %9)
          to label %_ZNSt7__cxx1112basic_stringIcSt11char_traitsIcESaIcEEC2IS3_EEPKcRKS3_.exit unwind label %6

_ZNSt7__cxx1112basic_stringIcSt11char_traitsIcESaIcEEC2IS3_EEPKcRKS3_.exit.thread: ; preds = %1
  tail call void @_ZNSt7__cxx1112basic_stringIcSt11char_traitsIcESaIcEEC1Ev(ptr noundef nonnull align 8 dereferenceable(32) %0) #7
  br label %10

_ZNSt7__cxx1112basic_stringIcSt11char_traitsIcESaIcEEC2IS3_EEPKcRKS3_.exit: ; preds = %.noexc6
  call void @_ZNSaIcED1Ev(ptr noundef nonnull align 1 dereferenceable(1) %2) #7
  br label %10

10:                                               ; preds = %_ZNSt7__cxx1112basic_stringIcSt11char_traitsIcESaIcEEC2IS3_EEPKcRKS3_.exit.thread, %_ZNSt7__cxx1112basic_stringIcSt11char_traitsIcESaIcEEC2IS3_EEPKcRKS3_.exit
  ret void

11:                                               ; preds = %.noexc, %4
  %12 = landingpad { ptr, i32 }
          cleanup
  br label %.body

.body:                                            ; preds = %6, %11
  %eh.lpad-body = phi { ptr, i32 } [ %12, %11 ], [ %7, %6 ]
  call void @_ZNSaIcED1Ev(ptr noundef nonnull align 1 dereferenceable(1) %2) #7
  resume { ptr, i32 } %eh.lpad-body
}